ccopy_reg
_reconstructor
p1
(csklearn.linear_model.logistic
LogisticRegression
p2
c__builtin__
object
p3
NtRp4
(dp5
S'C'
F100000
sS'max_iter'
p6
I100
sS'verbose'
p7
I0
sS'intercept_scaling'
p8
I1
sS'dual'
p9
I00
sS'fit_intercept'
p10
I01
sS'classes_'
p11
cnumpy.core.multiarray
_reconstruct
p12
(cnumpy
ndarray
p13
(I0
tS'b'
tRp14
(I1
(I2
tcnumpy
dtype
p15
(S'i8'
I0
I1
tRp16
(I3
S'<'
NNNI-1
I-1
I0
tbI00
S'\x01\x00\x00\x00\x00\x00\x00\x00\x05\x00\x00\x00\x00\x00\x00\x00'
tbsS'solver'
p17
S'liblinear'
p18
sS'n_iter_'
p19
cnumpy.core.multiarray
scalar
p20
(g15
(S'i4'
I0
I1
tRp21
(I3
S'<'
NNNI-1
I-1
I0
tbS'\x06\x00\x00\x00'
tRp22
sS'penalty'
p23
S'l2'
p24
sS'multi_class'
p25
S'ovr'
p26
sS'random_state'
p27
NsS'tol'
p28
F0.0001
sS'coef_'
p29
g12
(g13
(I0
tS'b'
tRp30
(I1
(I1
I3
tg15
(S'f8'
I0
I1
tRp31
(I3
S'<'
NNNI-1
I-1
I0
tbI01
S'\xd2\xae\nc\xf2\x82\xf4?\x0e\xf9\x0eeX\x01\xdb\xbf\xd9\xf5\xbc")\xc1\xe5\xbf'
tbsS'intercept_'
p32
g12
(g13
(I0
tS'b'
tRp33
(I1
(I1
tg31
I00
S'\x8a\x8d2\xaf_&\xfb?'
tbsS'class_weight'
p34
Nsb.